target datalayout = "e-m:e-p270:32:32-p271:32:32-p272:64:64-i64:64-i128:128-f80:128-n8:16:32:64-S128"
target triple = "x86_64-pc-linux-gnu"

; Function Attrs: nounwind uwtable
define void @Emb_ManVecCopyOne(ptr noundef %0, ptr noundef %1, i32 noundef %2) #0 {
  %4 = alloca ptr, align 8
  %5 = alloca ptr, align 8
  %6 = alloca i32, align 4
  %7 = alloca i32, align 4
  store ptr %0, ptr %4, align 8, !tbaa !107
  store ptr %1, ptr %5, align 8, !tbaa !107
  store i32 %2, ptr %6, align 4, !tbaa !12
  call void @llvm.lifetime.start.p0(i64 4, ptr %7) #12
  store i32 0, ptr %7, align 4, !tbaa !12
  br label %8

8:                                                ; preds = %22, %3
  %9 = load i32, ptr %7, align 4, !tbaa !12
  %10 = load i32, ptr %6, align 4, !tbaa !12
  %11 = icmp slt i32 %9, %10
  br i1 %11, label %12, label %25

12:                                               ; preds = %8
  %13 = load ptr, ptr %5, align 8, !tbaa !107
  %14 = load i32, ptr %7, align 4, !tbaa !12
  %15 = sext i32 %14 to i64
  %16 = getelementptr inbounds float, ptr %13, i64 %15
  %17 = load float, ptr %16, align 4, !tbaa !110
  %18 = load ptr, ptr %4, align 8, !tbaa !107
  %19 = load i32, ptr %7, align 4, !tbaa !12
  %20 = sext i32 %19 to i64
  %21 = getelementptr inbounds float, ptr %18, i64 %20
  store float %17, ptr %21, align 4, !tbaa !110
  br label %22

22:                                               ; preds = %12
  %23 = load i32, ptr %7, align 4, !tbaa !12
  %24 = add nsw i32 %23, 1
  store i32 %24, ptr %7, align 4, !tbaa !12
  br label %8, !llvm.loop !136

25:                                               ; preds = %8
  call void @llvm.lifetime.end.p0(i64 4, ptr %7) #12
  ret void
}