; Function Attrs: nofree norecurse nosync nounwind memory(argmem: readwrite) uwtable
define void @Emb_ManVecCopyOne(ptr noundef writeonly captures(none) %0, ptr noundef readonly captures(none) %1, i32 noundef %2) local_unnamed_addr #17 {
  %4 = icmp sgt i32 %2, 0
  br i1 %4, label %.lr.ph.preheader, label %._crit_edge

.lr.ph.preheader:                                 ; preds = %3
  %wide.trip.count = zext nneg i32 %2 to i64
  br label %.lr.ph

.lr.ph:                                           ; preds = %.lr.ph.preheader, %.lr.ph
  %indvars.iv = phi i64 [ 0, %.lr.ph.preheader ], [ %indvars.iv.next, %.lr.ph ]
  %5 = getelementptr inbounds nuw float, ptr %1, i64 %indvars.iv
  %6 = load float, ptr %5, align 4, !tbaa !106
  %7 = getelementptr inbounds nuw float, ptr %0, i64 %indvars.iv
  store float %6, ptr %7, align 4, !tbaa !106
  %indvars.iv.next = add nuw nsw i64 %indvars.iv, 1
  %exitcond.not = icmp eq i64 %indvars.iv.next, %wide.trip.count
  br i1 %exitcond.not, label %._crit_edge, label %.lr.ph, !llvm.loop !129

._crit_edge:                                      ; preds = %.lr.ph, %3
  ret void
}